target datalayout = "e-m:e-p270:32:32-p271:32:32-p272:64:64-i64:64-i128:128-f80:128-n8:16:32:64-S128"
target triple = "x86_64-pc-linux-gnu"

%struct.expert_field = type { i32, i32 }

@hf_ldp_tlv_val_hold = internal global i32 0, align 4
@hf_ldp_tlv_val_target = internal global i32 0, align 4
@hf_ldp_tlv_val_request = internal global i32 0, align 4
@hf_ldp_tlv_val_gtsm_flag = internal global i32 0, align 4
@hf_ldp_tlv_val_res = internal global i32 0, align 4
@ei_ldp_dtsm_and_target = internal global %struct.expert_field zeroinitializer, align 4
@ei_ldp_gtsm_supported = internal global %struct.expert_field zeroinitializer, align 4
@ei_ldp_gtsm_not_supported_basic_discovery = internal global %struct.expert_field zeroinitializer, align 4
@ei_ldp_gtsm_not_supported = internal global %struct.expert_field zeroinitializer, align 4

; Function Attrs: null_pointer_is_valid sspstrong uwtable
define internal void @dissect_tlv_common_hello_parms(ptr noundef %0, ptr noundef %1, i32 noundef %2, ptr noundef %3) #0 {
  %5 = alloca ptr, align 8
  %6 = alloca ptr, align 8
  %7 = alloca i32, align 4
  %8 = alloca ptr, align 8
  %9 = alloca ptr, align 8
  %10 = alloca ptr, align 8
  %11 = alloca i16, align 2
  store ptr %0, ptr %5, align 8
  store ptr %1, ptr %6, align 8
  store i32 %2, ptr %7, align 4
  store ptr %3, ptr %8, align 8
  call void @llvm.lifetime.start.p0(i64 8, ptr %9) #7
  call void @llvm.lifetime.start.p0(i64 8, ptr %10) #7
  call void @llvm.lifetime.start.p0(i64 2, ptr %11) #7
  %12 = load ptr, ptr %8, align 8
  store ptr %12, ptr %9, align 8
  %13 = load ptr, ptr %9, align 8
  %14 = load i32, ptr @hf_ldp_tlv_val_hold, align 4
  %15 = load ptr, ptr %5, align 8
  %16 = load i32, ptr %7, align 4
  %17 = call ptr @proto_tree_add_item(ptr noundef %13, i32 noundef %14, ptr noundef %15, i32 noundef %16, i32 noundef 2, i32 noundef 0)
  %18 = load ptr, ptr %9, align 8
  %19 = load i32, ptr @hf_ldp_tlv_val_target, align 4
  %20 = load ptr, ptr %5, align 8
  %21 = load i32, ptr %7, align 4
  %22 = add i32 %21, 2
  %23 = call ptr @proto_tree_add_item(ptr noundef %18, i32 noundef %19, ptr noundef %20, i32 noundef %22, i32 noundef 2, i32 noundef 0)
  %24 = load ptr, ptr %9, align 8
  %25 = load i32, ptr @hf_ldp_tlv_val_request, align 4
  %26 = load ptr, ptr %5, align 8
  %27 = load i32, ptr %7, align 4
  %28 = add i32 %27, 2
  %29 = call ptr @proto_tree_add_item(ptr noundef %24, i32 noundef %25, ptr noundef %26, i32 noundef %28, i32 noundef 2, i32 noundef 0)
  %30 = load ptr, ptr %9, align 8
  %31 = load i32, ptr @hf_ldp_tlv_val_gtsm_flag, align 4
  %32 = load ptr, ptr %5, align 8
  %33 = load i32, ptr %7, align 4
  %34 = add i32 %33, 2
  %35 = call ptr @proto_tree_add_item(ptr noundef %30, i32 noundef %31, ptr noundef %32, i32 noundef %34, i32 noundef 2, i32 noundef 0)
  store ptr %35, ptr %10, align 8
  %36 = load ptr, ptr %5, align 8
  %37 = load i32, ptr %7, align 4
  %38 = add i32 %37, 2
  %39 = mul i32 %38, 8
  %40 = call zeroext i16 @tvb_get_bits16(ptr noundef %36, i32 noundef %39, i32 noundef 16, i32 noundef 0)
  store i16 %40, ptr %11, align 2
  %41 = load i16, ptr %11, align 2
  %42 = zext i16 %41 to i32
  %43 = and i32 %42, 8192
  %44 = icmp ne i32 %43, 0
  br i1 %44, label %45, label %59

45:                                               ; preds = %4
  %46 = load i16, ptr %11, align 2
  %47 = zext i16 %46 to i32
  %48 = and i32 %47, 32768
  %49 = icmp ne i32 %48, 0
  br i1 %49, label %50, label %54

50:                                               ; preds = %45
  %51 = load ptr, ptr %6, align 8
  %52 = load ptr, ptr %10, align 8
  %53 = call ptr @expert_add_info(ptr noundef %51, ptr noundef %52, ptr noundef @ei_ldp_dtsm_and_target)
  br label %58

54:                                               ; preds = %45
  %55 = load ptr, ptr %6, align 8
  %56 = load ptr, ptr %10, align 8
  %57 = call ptr @expert_add_info(ptr noundef %55, ptr noundef %56, ptr noundef @ei_ldp_gtsm_supported)
  br label %58

58:                                               ; preds = %54, %50
  br label %73

59:                                               ; preds = %4
  %60 = load i16, ptr %11, align 2
  %61 = zext i16 %60 to i32
  %62 = and i32 %61, 32768
  %63 = icmp ne i32 %62, 0
  br i1 %63, label %64, label %68

64:                                               ; preds = %59
  %65 = load ptr, ptr %6, align 8
  %66 = load ptr, ptr %10, align 8
  %67 = call ptr @expert_add_info(ptr noundef %65, ptr noundef %66, ptr noundef @ei_ldp_gtsm_not_supported_basic_discovery)
  br label %72

68:                                               ; preds = %59
  %69 = load ptr, ptr %6, align 8
  %70 = load ptr, ptr %10, align 8
  %71 = call ptr @expert_add_info(ptr noundef %69, ptr noundef %70, ptr noundef @ei_ldp_gtsm_not_supported)
  br label %72

72:                                               ; preds = %68, %64
  br label %73

73:                                               ; preds = %72, %58
  %74 = load ptr, ptr %9, align 8
  %75 = load i32, ptr @hf_ldp_tlv_val_res, align 4
  %76 = load ptr, ptr %5, align 8
  %77 = load i32, ptr %7, align 4
  %78 = add i32 %77, 2
  %79 = call ptr @proto_tree_add_item(ptr noundef %74, i32 noundef %75, ptr noundef %76, i32 noundef %78, i32 noundef 2, i32 noundef 0)
  call void @llvm.lifetime.end.p0(i64 2, ptr %11) #7
  call void @llvm.lifetime.end.p0(i64 8, ptr %10) #7
  call void @llvm.lifetime.end.p0(i64 8, ptr %9) #7
  ret void
}