; Function Attrs: null_pointer_is_valid sspstrong uwtable
define internal fastcc void @dissect_tlv_common_hello_parms(ptr noundef %0, ptr noundef %1, i32 noundef %2, ptr noundef %3) unnamed_addr #0 {
  %5 = load i32, ptr @hf_ldp_tlv_val_hold, align 4
  %6 = tail call ptr @proto_tree_add_item(ptr noundef %3, i32 noundef %5, ptr noundef %0, i32 noundef %2, i32 noundef 2, i32 noundef 0)
  %7 = load i32, ptr @hf_ldp_tlv_val_target, align 4
  %8 = add i32 %2, 2
  %9 = tail call ptr @proto_tree_add_item(ptr noundef %3, i32 noundef %7, ptr noundef %0, i32 noundef %8, i32 noundef 2, i32 noundef 0)
  %10 = load i32, ptr @hf_ldp_tlv_val_request, align 4
  %11 = tail call ptr @proto_tree_add_item(ptr noundef %3, i32 noundef %10, ptr noundef %0, i32 noundef %8, i32 noundef 2, i32 noundef 0)
  %12 = load i32, ptr @hf_ldp_tlv_val_gtsm_flag, align 4
  %13 = tail call ptr @proto_tree_add_item(ptr noundef %3, i32 noundef %12, ptr noundef %0, i32 noundef %8, i32 noundef 2, i32 noundef 0)
  %14 = shl i32 %8, 3
  %15 = tail call zeroext i16 @tvb_get_bits16(ptr noundef %0, i32 noundef %14, i32 noundef 16, i32 noundef 0)
  %16 = and i16 %15, 8192
  %.not = icmp eq i16 %16, 0
  %.not28 = icmp sgt i16 %15, -1
  %ei_ldp_gtsm_supported.ei_ldp_dtsm_and_target = select i1 %.not28, ptr @ei_ldp_gtsm_supported, ptr @ei_ldp_dtsm_and_target
  %ei_ldp_gtsm_not_supported.ei_ldp_gtsm_not_supported_basic_discovery = select i1 %.not28, ptr @ei_ldp_gtsm_not_supported, ptr @ei_ldp_gtsm_not_supported_basic_discovery
  %ei_ldp_gtsm_not_supported_basic_discovery.sink = select i1 %.not, ptr %ei_ldp_gtsm_not_supported.ei_ldp_gtsm_not_supported_basic_discovery, ptr %ei_ldp_gtsm_supported.ei_ldp_dtsm_and_target
  %17 = tail call ptr @expert_add_info(ptr noundef %1, ptr noundef %13, ptr noundef nonnull %ei_ldp_gtsm_not_supported_basic_discovery.sink)
  %18 = load i32, ptr @hf_ldp_tlv_val_res, align 4
  %19 = tail call ptr @proto_tree_add_item(ptr noundef %3, i32 noundef %18, ptr noundef %0, i32 noundef %8, i32 noundef 2, i32 noundef 0)
  ret void
}